; Function Attrs: mustprogress nofree norecurse nosync nounwind willreturn memory(read, argmem: readwrite, inaccessiblemem: none) uwtable
define hidden void @_ZN12OopMapStreamC2EPK6OopMap(ptr nocapture noundef nonnull writeonly align 8 dereferenceable(30) %0, ptr nocapture noundef readonly %1) unnamed_addr #0 align 2 {
  %3 = getelementptr inbounds i8, ptr %1, i64 24
  %4 = load ptr, ptr %3, align 8
  %5 = load ptr, ptr %4, align 8
  store ptr %5, ptr %0, align 8
  %6 = getelementptr inbounds i8, ptr %0, i64 8
  store i32 0, ptr %6, align 8
  %7 = getelementptr inbounds i8, ptr %0, i64 26
  store i16 0, ptr %7, align 2
  %8 = getelementptr inbounds i8, ptr %0, i64 28
  store i16 -1, ptr %8, align 4
  %9 = getelementptr inbounds i8, ptr %1, i64 4
  %10 = load i32, ptr %9, align 4
  %11 = getelementptr inbounds i8, ptr %0, i64 16
  store i32 %10, ptr %11, align 8
  %12 = getelementptr inbounds i8, ptr %0, i64 20
  store i32 0, ptr %12, align 4
  %13 = getelementptr inbounds i8, ptr %0, i64 24
  store i8 0, ptr %13, align 8
  ret void
}